; Function Attrs: nounwind uwtable
define void @dt_image_cache_read_release(ptr noundef %0, ptr noundef readonly %1) local_unnamed_addr #0 {
  %.not = icmp eq ptr %1, null
  br i1 %.not, label %10, label %3

3:                                                ; preds = %2
  %4 = getelementptr inbounds nuw i8, ptr %1, i64 1432
  %5 = load i32, ptr %4, align 8, !tbaa !63
  %6 = icmp sgt i32 %5, 0
  br i1 %6, label %7, label %10

7:                                                ; preds = %3
  %8 = getelementptr inbounds nuw i8, ptr %1, i64 1832
  %9 = load ptr, ptr %8, align 8, !tbaa !113
  tail call void @dt_cache_release_with_caller(ptr noundef %0, ptr noundef %9, ptr noundef nonnull @.str.3, i32 noundef 285) #8
  br label %10

10:                                               ; preds = %2, %3, %7
  ret void
}